target datalayout = "e-m:e-p270:32:32-p271:32:32-p272:64:64-i64:64-i128:128-f80:128-n8:16:32:64-S128"
target triple = "x86_64-unknown-linux-gnu"

%struct.BdrvDirtyBitmap = type { ptr, ptr, i8, ptr, ptr, i64, i8, i32, i8, i8, i8, i8, %struct.anon }
%struct.anon = type { ptr, ptr }

@.str.1 = private unnamed_addr constant [29 x i8] c"../qemu/block/dirty-bitmap.c\00", align 1
@__func__.bdrv_reclaim_dirty_bitmap_locked = private unnamed_addr constant [33 x i8] c"bdrv_reclaim_dirty_bitmap_locked\00", align 1
@.str.13 = private unnamed_addr constant [48 x i8] c"Cannot reclaim a successor when none is present\00", align 1

; Function Attrs: nounwind sspstrong uwtable
define dso_local ptr @bdrv_reclaim_dirty_bitmap_locked(ptr noundef %parent, ptr noundef %errp) #0 {
entry:
  %retval = alloca ptr, align 8
  %parent.addr = alloca ptr, align 8
  %errp.addr = alloca ptr, align 8
  %successor = alloca ptr, align 8
  store ptr %parent, ptr %parent.addr, align 8
  store ptr %errp, ptr %errp.addr, align 8
  %0 = load ptr, ptr %parent.addr, align 8
  %successor1 = getelementptr inbounds %struct.BdrvDirtyBitmap, ptr %0, i32 0, i32 3
  %1 = load ptr, ptr %successor1, align 8
  store ptr %1, ptr %successor, align 8
  %2 = load ptr, ptr %successor, align 8
  %tobool = icmp ne ptr %2, null
  br i1 %tobool, label %if.end, label %if.then

if.then:                                          ; preds = %entry
  %3 = load ptr, ptr %errp.addr, align 8
  call void (ptr, ptr, i32, ptr, ptr, ...) @error_setg_internal(ptr noundef %3, ptr noundef @.str.1, i32 noundef 310, ptr noundef @__func__.bdrv_reclaim_dirty_bitmap_locked, ptr noundef @.str.13)
  store ptr null, ptr %retval, align 8
  br label %return

if.end:                                           ; preds = %entry
  %4 = load ptr, ptr %parent.addr, align 8
  %bitmap = getelementptr inbounds %struct.BdrvDirtyBitmap, ptr %4, i32 0, i32 1
  %5 = load ptr, ptr %bitmap, align 8
  %6 = load ptr, ptr %successor, align 8
  %bitmap2 = getelementptr inbounds %struct.BdrvDirtyBitmap, ptr %6, i32 0, i32 1
  %7 = load ptr, ptr %bitmap2, align 8
  %8 = load ptr, ptr %parent.addr, align 8
  %bitmap3 = getelementptr inbounds %struct.BdrvDirtyBitmap, ptr %8, i32 0, i32 1
  %9 = load ptr, ptr %bitmap3, align 8
  call void @hbitmap_merge(ptr noundef %5, ptr noundef %7, ptr noundef %9)
  %10 = load ptr, ptr %successor, align 8
  %disabled = getelementptr inbounds %struct.BdrvDirtyBitmap, ptr %10, i32 0, i32 6
  %11 = load i8, ptr %disabled, align 8
  %tobool4 = trunc i8 %11 to i1
  %12 = load ptr, ptr %parent.addr, align 8
  %disabled5 = getelementptr inbounds %struct.BdrvDirtyBitmap, ptr %12, i32 0, i32 6
  %frombool = zext i1 %tobool4 to i8
  store i8 %frombool, ptr %disabled5, align 8
  %13 = load ptr, ptr %parent.addr, align 8
  %busy = getelementptr inbounds %struct.BdrvDirtyBitmap, ptr %13, i32 0, i32 2
  store i8 0, ptr %busy, align 8
  %14 = load ptr, ptr %successor, align 8
  call void @bdrv_release_dirty_bitmap_locked(ptr noundef %14)
  %15 = load ptr, ptr %parent.addr, align 8
  %successor6 = getelementptr inbounds %struct.BdrvDirtyBitmap, ptr %15, i32 0, i32 3
  store ptr null, ptr %successor6, align 8
  %16 = load ptr, ptr %parent.addr, align 8
  store ptr %16, ptr %retval, align 8
  br label %return

return:                                           ; preds = %if.end, %if.then
  %17 = load ptr, ptr %retval, align 8
  ret ptr %17
}