; Function Attrs: nounwind sspstrong uwtable
define dso_local noundef ptr @bdrv_reclaim_dirty_bitmap_locked(ptr noundef %parent, ptr noundef %errp) local_unnamed_addr #0 {
entry:
  %successor1 = getelementptr inbounds nuw i8, ptr %parent, i64 24
  %0 = load ptr, ptr %successor1, align 8
  %tobool.not = icmp eq ptr %0, null
  br i1 %tobool.not, label %if.then, label %if.end

if.then:                                          ; preds = %entry
  tail call void (ptr, ptr, i32, ptr, ptr, ...) @error_setg_internal(ptr noundef %errp, ptr noundef nonnull @.str.1, i32 noundef 310, ptr noundef nonnull @__func__.bdrv_reclaim_dirty_bitmap_locked, ptr noundef nonnull @.str.13) #14
  br label %return

if.end:                                           ; preds = %entry
  %bitmap = getelementptr inbounds nuw i8, ptr %parent, i64 8
  %1 = load ptr, ptr %bitmap, align 8
  %bitmap2 = getelementptr inbounds nuw i8, ptr %0, i64 8
  %2 = load ptr, ptr %bitmap2, align 8
  tail call void @hbitmap_merge(ptr noundef %1, ptr noundef %2, ptr noundef %1) #14
  %disabled = getelementptr inbounds nuw i8, ptr %0, i64 48
  %3 = load i8, ptr %disabled, align 8
  %disabled5 = getelementptr inbounds nuw i8, ptr %parent, i64 48
  %frombool = and i8 %3, 1
  store i8 %frombool, ptr %disabled5, align 8
  %busy = getelementptr inbounds nuw i8, ptr %parent, i64 16
  store i8 0, ptr %busy, align 8
  tail call fastcc void @bdrv_release_dirty_bitmap_locked(ptr noundef nonnull %0)
  store ptr null, ptr %successor1, align 8
  br label %return

return:                                           ; preds = %if.end, %if.then
  %retval.0 = phi ptr [ %parent, %if.end ], [ null, %if.then ]
  ret ptr %retval.0
}